target datalayout = "e-m:e-p270:32:32-p271:32:32-p272:64:64-i64:64-i128:128-f80:128-n8:16:32:64-S128"
target triple = "x86_64-unknown-linux-gnu"

%"struct.std::_Vector_base" = type { %"struct.std::_Vector_base<double, std::allocator<double>>::_Vector_impl" }
%"struct.std::_Vector_base<double, std::allocator<double>>::_Vector_impl" = type { %"struct.std::_Vector_base<double, std::allocator<double>>::_Vector_impl_data" }
%"struct.std::_Vector_base<double, std::allocator<double>>::_Vector_impl_data" = type { ptr, ptr, ptr }
%"class.std::vector" = type { %"struct.std::_Vector_base" }
%"class.QuantLib::EvolutionDescription" = type { i64, %"class.std::vector", %"class.std::vector", %"class.std::vector.0", %"class.std::vector", %"class.std::vector.5" }
%"class.std::vector.0" = type { %"struct.std::_Vector_base.1" }
%"struct.std::_Vector_base.1" = type { %"struct.std::_Vector_base<std::pair<unsigned long, unsigned long>, std::allocator<std::pair<unsigned long, unsigned long>>>::_Vector_impl" }
%"struct.std::_Vector_base<std::pair<unsigned long, unsigned long>, std::allocator<std::pair<unsigned long, unsigned long>>>::_Vector_impl" = type { %"struct.std::_Vector_base<std::pair<unsigned long, unsigned long>, std::allocator<std::pair<unsigned long, unsigned long>>>::_Vector_impl_data" }
%"struct.std::_Vector_base<std::pair<unsigned long, unsigned long>, std::allocator<std::pair<unsigned long, unsigned long>>>::_Vector_impl_data" = type { ptr, ptr, ptr }
%"class.std::vector.5" = type { %"struct.std::_Vector_base.6" }
%"struct.std::_Vector_base.6" = type { %"struct.std::_Vector_base<unsigned long, std::allocator<unsigned long>>::_Vector_impl" }
%"struct.std::_Vector_base<unsigned long, std::allocator<unsigned long>>::_Vector_impl" = type { %"struct.std::_Vector_base<unsigned long, std::allocator<unsigned long>>::_Vector_impl_data" }
%"struct.std::_Vector_base<unsigned long, std::allocator<unsigned long>>::_Vector_impl_data" = type { ptr, ptr, ptr }
%"class.QuantLib::MarketModelPathwiseMultiProduct" = type { ptr }
%"struct.std::_Vector_base.14" = type { %"struct.std::_Vector_base<std::vector<QuantLib::MarketModelPathwiseMultiProduct::CashFlow>, std::allocator<std::vector<QuantLib::MarketModelPathwiseMultiProduct::CashFlow>>>::_Vector_impl" }
%"struct.std::_Vector_base<std::vector<QuantLib::MarketModelPathwiseMultiProduct::CashFlow>, std::allocator<std::vector<QuantLib::MarketModelPathwiseMultiProduct::CashFlow>>>::_Vector_impl" = type { %"struct.std::_Vector_base<std::vector<QuantLib::MarketModelPathwiseMultiProduct::CashFlow>, std::allocator<std::vector<QuantLib::MarketModelPathwiseMultiProduct::CashFlow>>>::_Vector_impl_data" }
%"struct.std::_Vector_base<std::vector<QuantLib::MarketModelPathwiseMultiProduct::CashFlow>, std::allocator<std::vector<QuantLib::MarketModelPathwiseMultiProduct::CashFlow>>>::_Vector_impl_data" = type { ptr, ptr, ptr }
%"class.QuantLib::MarketModelPathwiseMultiDeflatedCaplet" = type { %"class.QuantLib::MarketModelPathwiseMultiProduct", %"class.std::vector", %"class.std::vector", %"class.std::vector", %"class.std::vector", i64, i64, %"class.QuantLib::EvolutionDescription" }
%"class.QuantLib::MarketModelPathwiseMultiDeflatedCap" = type { %"class.QuantLib::MarketModelPathwiseMultiProduct", %"class.QuantLib::MarketModelPathwiseMultiDeflatedCaplet", i64, %"class.std::vector.0", i64, %"class.std::vector.5", %"class.std::vector.13" }
%"class.std::vector.13" = type { %"struct.std::_Vector_base.14" }

; Function Attrs: mustprogress nounwind uwtable
define linkonce_odr noundef i64 @_ZNKSt6vectorISt4pairImmESaIS1_EE4sizeEv(ptr noundef nonnull align 8 dereferenceable(24) %this) #1 comdat align 2 {
entry:
  %this.addr = alloca ptr, align 8
  store ptr %this, ptr %this.addr, align 8, !tbaa !3
  %this1 = load ptr, ptr %this.addr, align 8
  %_M_impl = getelementptr inbounds nuw %"struct.std::_Vector_base.1", ptr %this1, i32 0, i32 0
  %_M_finish = getelementptr inbounds nuw %"struct.std::_Vector_base<std::pair<unsigned long, unsigned long>, std::allocator<std::pair<unsigned long, unsigned long>>>::_Vector_impl_data", ptr %_M_impl, i32 0, i32 1
  %0 = load ptr, ptr %_M_finish, align 8, !tbaa !30
  %_M_impl2 = getelementptr inbounds nuw %"struct.std::_Vector_base.1", ptr %this1, i32 0, i32 0
  %_M_start = getelementptr inbounds nuw %"struct.std::_Vector_base<std::pair<unsigned long, unsigned long>, std::allocator<std::pair<unsigned long, unsigned long>>>::_Vector_impl_data", ptr %_M_impl2, i32 0, i32 0
  %1 = load ptr, ptr %_M_start, align 8, !tbaa !29
  %sub.ptr.lhs.cast = ptrtoint ptr %0 to i64
  %sub.ptr.rhs.cast = ptrtoint ptr %1 to i64
  %sub.ptr.sub = sub i64 %sub.ptr.lhs.cast, %sub.ptr.rhs.cast
  %sub.ptr.div = sdiv exact i64 %sub.ptr.sub, 16
  ret i64 %sub.ptr.div
}

; Function Attrs: mustprogress nounwind uwtable
define noundef i64 @_ZNK8QuantLib35MarketModelPathwiseMultiDeflatedCap16numberOfProductsEv(ptr noundef nonnull align 8 dereferenceable(344) %this) unnamed_addr #1 align 2 {
entry:
  %this.addr = alloca ptr, align 8
  store ptr %this, ptr %this.addr, align 8, !tbaa !3
  %this1 = load ptr, ptr %this.addr, align 8
  %startsAndEnds_ = getelementptr inbounds nuw %"class.QuantLib::MarketModelPathwiseMultiDeflatedCap", ptr %this1, i32 0, i32 3
  %call = call noundef i64 @_ZNKSt6vectorISt4pairImmESaIS1_EE4sizeEv(ptr noundef nonnull align 8 dereferenceable(24) %startsAndEnds_) #17
  ret i64 %call
}