; Function Attrs: mustprogress nofree norecurse nosync nounwind willreturn memory(argmem: read) uwtable
define noundef range(i64 -576460752303423488, 576460752303423488) i64 @_ZNK8QuantLib35MarketModelPathwiseMultiDeflatedCap16numberOfProductsEv(ptr nocapture noundef nonnull readonly align 8 dereferenceable(344) %this) unnamed_addr #11 align 2 {
entry:
  %startsAndEnds_ = getelementptr inbounds nuw i8, ptr %this, i64 264
  %_M_finish.i = getelementptr inbounds nuw i8, ptr %this, i64 272
  %0 = load ptr, ptr %_M_finish.i, align 8, !tbaa !44
  %1 = load ptr, ptr %startsAndEnds_, align 8, !tbaa !37
  %sub.ptr.lhs.cast.i = ptrtoint ptr %0 to i64
  %sub.ptr.rhs.cast.i = ptrtoint ptr %1 to i64
  %sub.ptr.sub.i = sub i64 %sub.ptr.lhs.cast.i, %sub.ptr.rhs.cast.i
  %sub.ptr.div.i = ashr exact i64 %sub.ptr.sub.i, 4
  ret i64 %sub.ptr.div.i
}